target datalayout = "e-m:e-p270:32:32-p271:32:32-p272:64:64-i64:64-i128:128-f80:128-n8:16:32:64-S128"
target triple = "x86_64-pc-linux-gnu"

%"struct.std::_Vector_base" = type { %"struct.std::_Vector_base<double, std::allocator<double>>::_Vector_impl" }
%"struct.std::_Vector_base<double, std::allocator<double>>::_Vector_impl" = type { %"struct.std::_Vector_base<double, std::allocator<double>>::_Vector_impl_data" }
%"struct.std::_Vector_base<double, std::allocator<double>>::_Vector_impl_data" = type { ptr, ptr, ptr }

; Function Attrs: mustprogress nounwind uwtable
define linkonce_odr dso_local noundef nonnull align 8 dereferenceable(8) ptr @_ZNSt6vectorIdSaIdEEixEm(ptr noundef nonnull align 8 dereferenceable(24) %0, i64 noundef %1) #1 comdat align 2 {
  %3 = alloca ptr, align 8
  %4 = alloca i64, align 8
  store ptr %0, ptr %3, align 8, !tbaa !15
  store i64 %1, ptr %4, align 8, !tbaa !21
  %5 = load ptr, ptr %3, align 8
  %6 = getelementptr inbounds nuw %"struct.std::_Vector_base", ptr %5, i32 0, i32 0
  %7 = getelementptr inbounds nuw %"struct.std::_Vector_base<double, std::allocator<double>>::_Vector_impl_data", ptr %6, i32 0, i32 0
  %8 = load ptr, ptr %7, align 8, !tbaa !23
  %9 = load i64, ptr %4, align 8, !tbaa !21
  %10 = getelementptr inbounds nuw double, ptr %8, i64 %9
  ret ptr %10
}

; Function Attrs: mustprogress nounwind uwtable
define dso_local noundef i32 @_ZN3igl13flip_avoiding7SolveP3ERSt6vectorIdSaIdEEddd(ptr noundef nonnull align 8 dereferenceable(24) %0, double noundef %1, double noundef %2, double noundef %3) #1 {
  %5 = alloca i32, align 4
  %6 = alloca ptr, align 8
  %7 = alloca double, align 8
  %8 = alloca double, align 8
  %9 = alloca double, align 8
  %10 = alloca double, align 8
  %11 = alloca double, align 8
  %12 = alloca double, align 8
  %13 = alloca double, align 8
  %14 = alloca double, align 8
  %15 = alloca double, align 8
  %16 = alloca double, align 8
  %17 = alloca double, align 8
  %18 = alloca i32, align 4
  store ptr %0, ptr %6, align 8, !tbaa !15
  store double %1, ptr %7, align 8, !tbaa !17
  store double %2, ptr %8, align 8, !tbaa !17
  store double %3, ptr %9, align 8, !tbaa !17
  call void @llvm.lifetime.start.p0(i64 8, ptr %10) #22
  %19 = load double, ptr %7, align 8, !tbaa !17
  %20 = load double, ptr %7, align 8, !tbaa !17
  %21 = fmul double %19, %20
  store double %21, ptr %10, align 8, !tbaa !17
  call void @llvm.lifetime.start.p0(i64 8, ptr %11) #22
  %22 = load double, ptr %10, align 8, !tbaa !17
  %23 = load double, ptr %8, align 8, !tbaa !17
  %24 = call double @llvm.fmuladd.f64(double -3.000000e+00, double %23, double %22)
  %25 = fdiv double %24, 9.000000e+00
  store double %25, ptr %11, align 8, !tbaa !17
  call void @llvm.lifetime.start.p0(i64 8, ptr %12) #22
  %26 = load double, ptr %7, align 8, !tbaa !17
  %27 = load double, ptr %10, align 8, !tbaa !17
  %28 = load double, ptr %8, align 8, !tbaa !17
  %29 = fmul double 9.000000e+00, %28
  %30 = fneg double %29
  %31 = call double @llvm.fmuladd.f64(double 2.000000e+00, double %27, double %30)
  %32 = load double, ptr %9, align 8, !tbaa !17
  %33 = fmul double 2.700000e+01, %32
  %34 = call double @llvm.fmuladd.f64(double %26, double %31, double %33)
  %35 = fdiv double %34, 5.400000e+01
  store double %35, ptr %12, align 8, !tbaa !17
  call void @llvm.lifetime.start.p0(i64 8, ptr %13) #22
  %36 = load double, ptr %12, align 8, !tbaa !17
  %37 = load double, ptr %12, align 8, !tbaa !17
  %38 = fmul double %36, %37
  store double %38, ptr %13, align 8, !tbaa !17
  call void @llvm.lifetime.start.p0(i64 8, ptr %14) #22
  %39 = load double, ptr %11, align 8, !tbaa !17
  %40 = load double, ptr %11, align 8, !tbaa !17
  %41 = fmul double %39, %40
  %42 = load double, ptr %11, align 8, !tbaa !17
  %43 = fmul double %41, %42
  store double %43, ptr %14, align 8, !tbaa !17
  call void @llvm.lifetime.start.p0(i64 8, ptr %15) #22
  call void @llvm.lifetime.start.p0(i64 8, ptr %16) #22
  %44 = load double, ptr %13, align 8, !tbaa !17
  %45 = load double, ptr %14, align 8, !tbaa !17
  %46 = fcmp olt double %44, %45
  br i1 %46, label %47, label %96

47:                                               ; preds = %4
  call void @llvm.lifetime.start.p0(i64 8, ptr %17) #22
  %48 = load double, ptr %12, align 8, !tbaa !17
  %49 = load double, ptr %14, align 8, !tbaa !17
  %50 = call double @sqrt(double noundef %49) #22, !tbaa !19
  %51 = fdiv double %48, %50
  store double %51, ptr %17, align 8, !tbaa !17
  %52 = load double, ptr %17, align 8, !tbaa !17
  %53 = fcmp olt double %52, -1.000000e+00
  br i1 %53, label %54, label %55

54:                                               ; preds = %47
  store double -1.000000e+00, ptr %17, align 8, !tbaa !17
  br label %55

55:                                               ; preds = %54, %47
  %56 = load double, ptr %17, align 8, !tbaa !17
  %57 = fcmp ogt double %56, 1.000000e+00
  br i1 %57, label %58, label %59

58:                                               ; preds = %55
  store double 1.000000e+00, ptr %17, align 8, !tbaa !17
  br label %59

59:                                               ; preds = %58, %55
  %60 = load double, ptr %17, align 8, !tbaa !17
  %61 = call double @acos(double noundef %60) #22, !tbaa !19
  store double %61, ptr %17, align 8, !tbaa !17
  %62 = load double, ptr %7, align 8, !tbaa !17
  %63 = fdiv double %62, 3.000000e+00
  store double %63, ptr %7, align 8, !tbaa !17
  %64 = load double, ptr %11, align 8, !tbaa !17
  %65 = call double @sqrt(double noundef %64) #22, !tbaa !19
  %66 = fmul double -2.000000e+00, %65
  store double %66, ptr %11, align 8, !tbaa !17
  %67 = load double, ptr %11, align 8, !tbaa !17
  %68 = load double, ptr %17, align 8, !tbaa !17
  %69 = fdiv double %68, 3.000000e+00
  %70 = call double @cos(double noundef %69) #22, !tbaa !19
  %71 = load double, ptr %7, align 8, !tbaa !17
  %72 = fneg double %71
  %73 = call double @llvm.fmuladd.f64(double %67, double %70, double %72)
  %74 = load ptr, ptr %6, align 8, !tbaa !15
  %75 = call noundef nonnull align 8 dereferenceable(8) ptr @_ZNSt6vectorIdSaIdEEixEm(ptr noundef nonnull align 8 dereferenceable(24) %74, i64 noundef 0) #22
  store double %73, ptr %75, align 8, !tbaa !17
  %76 = load double, ptr %11, align 8, !tbaa !17
  %77 = load double, ptr %17, align 8, !tbaa !17
  %78 = fadd double %77, 0x401921FB54442D18
  %79 = fdiv double %78, 3.000000e+00
  %80 = call double @cos(double noundef %79) #22, !tbaa !19
  %81 = load double, ptr %7, align 8, !tbaa !17
  %82 = fneg double %81
  %83 = call double @llvm.fmuladd.f64(double %76, double %80, double %82)
  %84 = load ptr, ptr %6, align 8, !tbaa !15
  %85 = call noundef nonnull align 8 dereferenceable(8) ptr @_ZNSt6vectorIdSaIdEEixEm(ptr noundef nonnull align 8 dereferenceable(24) %84, i64 noundef 1) #22
  store double %83, ptr %85, align 8, !tbaa !17
  %86 = load double, ptr %11, align 8, !tbaa !17
  %87 = load double, ptr %17, align 8, !tbaa !17
  %88 = fsub double %87, 0x401921FB54442D18
  %89 = fdiv double %88, 3.000000e+00
  %90 = call double @cos(double noundef %89) #22, !tbaa !19
  %91 = load double, ptr %7, align 8, !tbaa !17
  %92 = fneg double %91
  %93 = call double @llvm.fmuladd.f64(double %86, double %90, double %92)
  %94 = load ptr, ptr %6, align 8, !tbaa !15
  %95 = call noundef nonnull align 8 dereferenceable(8) ptr @_ZNSt6vectorIdSaIdEEixEm(ptr noundef nonnull align 8 dereferenceable(24) %94, i64 noundef 2) #22
  store double %93, ptr %95, align 8, !tbaa !17
  store i32 3, ptr %5, align 4
  store i32 1, ptr %18, align 4
  call void @llvm.lifetime.end.p0(i64 8, ptr %17) #22
  br label %158

96:                                               ; preds = %4
  %97 = load double, ptr %12, align 8, !tbaa !17
  %98 = call double @llvm.fabs.f64(double %97)
  %99 = load double, ptr %13, align 8, !tbaa !17
  %100 = load double, ptr %14, align 8, !tbaa !17
  %101 = fsub double %99, %100
  %102 = call double @sqrt(double noundef %101) #22, !tbaa !19
  %103 = fadd double %98, %102
  %104 = call double @pow(double noundef %103, double noundef 0x3FD5555555555555) #22, !tbaa !19
  %105 = fneg double %104
  store double %105, ptr %15, align 8, !tbaa !17
  %106 = load double, ptr %12, align 8, !tbaa !17
  %107 = fcmp olt double %106, 0.000000e+00
  br i1 %107, label %108, label %111

108:                                              ; preds = %96
  %109 = load double, ptr %15, align 8, !tbaa !17
  %110 = fneg double %109
  store double %110, ptr %15, align 8, !tbaa !17
  br label %111

111:                                              ; preds = %108, %96
  %112 = load double, ptr %15, align 8, !tbaa !17
  %113 = fcmp oeq double %112, 0.000000e+00
  br i1 %113, label %114, label %115

114:                                              ; preds = %111
  br label %119

115:                                              ; preds = %111
  %116 = load double, ptr %11, align 8, !tbaa !17
  %117 = load double, ptr %15, align 8, !tbaa !17
  %118 = fdiv double %116, %117
  br label %119

119:                                              ; preds = %115, %114
  %120 = phi double [ 0.000000e+00, %114 ], [ %118, %115 ]
  store double %120, ptr %16, align 8, !tbaa !17
  %121 = load double, ptr %7, align 8, !tbaa !17
  %122 = fdiv double %121, 3.000000e+00
  store double %122, ptr %7, align 8, !tbaa !17
  %123 = load double, ptr %15, align 8, !tbaa !17
  %124 = load double, ptr %16, align 8, !tbaa !17
  %125 = fadd double %123, %124
  %126 = load double, ptr %7, align 8, !tbaa !17
  %127 = fsub double %125, %126
  %128 = load ptr, ptr %6, align 8, !tbaa !15
  %129 = call noundef nonnull align 8 dereferenceable(8) ptr @_ZNSt6vectorIdSaIdEEixEm(ptr noundef nonnull align 8 dereferenceable(24) %128, i64 noundef 0) #22
  store double %127, ptr %129, align 8, !tbaa !17
  %130 = load double, ptr %15, align 8, !tbaa !17
  %131 = load double, ptr %16, align 8, !tbaa !17
  %132 = fadd double %130, %131
  %133 = load double, ptr %7, align 8, !tbaa !17
  %134 = fneg double %133
  %135 = call double @llvm.fmuladd.f64(double -5.000000e-01, double %132, double %134)
  %136 = load ptr, ptr %6, align 8, !tbaa !15
  %137 = call noundef nonnull align 8 dereferenceable(8) ptr @_ZNSt6vectorIdSaIdEEixEm(ptr noundef nonnull align 8 dereferenceable(24) %136, i64 noundef 1) #22
  store double %135, ptr %137, align 8, !tbaa !17
  %138 = call double @sqrt(double noundef 3.000000e+00) #22, !tbaa !19
  %139 = fmul double 5.000000e-01, %138
  %140 = load double, ptr %15, align 8, !tbaa !17
  %141 = load double, ptr %16, align 8, !tbaa !17
  %142 = fsub double %140, %141
  %143 = fmul double %139, %142
  %144 = load ptr, ptr %6, align 8, !tbaa !15
  %145 = call noundef nonnull align 8 dereferenceable(8) ptr @_ZNSt6vectorIdSaIdEEixEm(ptr noundef nonnull align 8 dereferenceable(24) %144, i64 noundef 2) #22
  store double %143, ptr %145, align 8, !tbaa !17
  %146 = load ptr, ptr %6, align 8, !tbaa !15
  %147 = call noundef nonnull align 8 dereferenceable(8) ptr @_ZNSt6vectorIdSaIdEEixEm(ptr noundef nonnull align 8 dereferenceable(24) %146, i64 noundef 2) #22
  %148 = load double, ptr %147, align 8, !tbaa !17
  %149 = call double @llvm.fabs.f64(double %148)
  %150 = fcmp olt double %149, 0x3D06849B86A12B9B
  br i1 %150, label %151, label %157

151:                                              ; preds = %119
  %152 = load ptr, ptr %6, align 8, !tbaa !15
  %153 = call noundef nonnull align 8 dereferenceable(8) ptr @_ZNSt6vectorIdSaIdEEixEm(ptr noundef nonnull align 8 dereferenceable(24) %152, i64 noundef 1) #22
  %154 = load double, ptr %153, align 8, !tbaa !17
  %155 = load ptr, ptr %6, align 8, !tbaa !15
  %156 = call noundef nonnull align 8 dereferenceable(8) ptr @_ZNSt6vectorIdSaIdEEixEm(ptr noundef nonnull align 8 dereferenceable(24) %155, i64 noundef 2) #22
  store double %154, ptr %156, align 8, !tbaa !17
  store i32 2, ptr %5, align 4
  store i32 1, ptr %18, align 4
  br label %158

157:                                              ; preds = %119
  store i32 1, ptr %5, align 4
  store i32 1, ptr %18, align 4
  br label %158

158:                                              ; preds = %157, %151, %59
  call void @llvm.lifetime.end.p0(i64 8, ptr %16) #22
  call void @llvm.lifetime.end.p0(i64 8, ptr %15) #22
  call void @llvm.lifetime.end.p0(i64 8, ptr %14) #22
  call void @llvm.lifetime.end.p0(i64 8, ptr %13) #22
  call void @llvm.lifetime.end.p0(i64 8, ptr %12) #22
  call void @llvm.lifetime.end.p0(i64 8, ptr %11) #22
  call void @llvm.lifetime.end.p0(i64 8, ptr %10) #22
  %159 = load i32, ptr %5, align 4
  ret i32 %159
}