; Function Attrs: mustprogress nofree norecurse nounwind willreturn memory(write, argmem: readwrite, inaccessiblemem: none) uwtable
define dso_local noundef range(i32 1, 4) i32 @_ZN3igl13flip_avoiding7SolveP3ERSt6vectorIdSaIdEEddd(ptr noundef nonnull readonly align 8 captures(none) dereferenceable(24) %0, double noundef %1, double noundef %2, double noundef %3) local_unnamed_addr #0 {
  %5 = fmul double %1, %1
  %6 = tail call double @llvm.fmuladd.f64(double %2, double -3.000000e+00, double %5)
  %7 = fdiv double %6, 9.000000e+00
  %8 = fmul double %2, -9.000000e+00
  %9 = tail call double @llvm.fmuladd.f64(double %5, double 2.000000e+00, double %8)
  %10 = fmul double %3, 2.700000e+01
  %11 = tail call double @llvm.fmuladd.f64(double %1, double %9, double %10)
  %12 = fdiv double %11, 5.400000e+01
  %13 = fmul double %12, %12
  %14 = fmul double %7, %7
  %15 = fmul double %7, %14
  %16 = fcmp olt double %13, %15
  br i1 %16, label %17, label %40

17:                                               ; preds = %4
  %18 = tail call double @sqrt(double noundef %15) #19, !tbaa !4
  %19 = fdiv double %12, %18
  %20 = fcmp olt double %19, -1.000000e+00
  %.0 = select i1 %20, double -1.000000e+00, double %19
  %21 = fcmp ogt double %.0, 1.000000e+00
  %.1 = select i1 %21, double 1.000000e+00, double %.0
  %22 = tail call double @acos(double noundef %.1) #19, !tbaa !4
  %23 = tail call double @sqrt(double noundef %7) #19, !tbaa !4
  %24 = fmul double %23, -2.000000e+00
  %25 = fdiv double %22, 3.000000e+00
  %26 = tail call double @cos(double noundef %25) #19, !tbaa !4
  %27 = fdiv double %1, -3.000000e+00
  %28 = tail call double @llvm.fmuladd.f64(double %24, double %26, double %27)
  %29 = load ptr, ptr %0, align 8, !tbaa !8
  store double %28, ptr %29, align 8, !tbaa !12
  %30 = fadd double %22, 0x401921FB54442D18
  %31 = fdiv double %30, 3.000000e+00
  %32 = tail call double @cos(double noundef %31) #19, !tbaa !4
  %33 = tail call double @llvm.fmuladd.f64(double %24, double %32, double %27)
  %34 = getelementptr inbounds nuw i8, ptr %29, i64 8
  store double %33, ptr %34, align 8, !tbaa !12
  %35 = fadd double %22, 0xC01921FB54442D18
  %36 = fdiv double %35, 3.000000e+00
  %37 = tail call double @cos(double noundef %36) #19, !tbaa !4
  %38 = tail call double @llvm.fmuladd.f64(double %24, double %37, double %27)
  %39 = getelementptr inbounds nuw i8, ptr %29, i64 16
  store double %38, ptr %39, align 8, !tbaa !12
  br label %64

40:                                               ; preds = %4
  %41 = tail call double @llvm.fabs.f64(double %12)
  %42 = fsub double %13, %15
  %43 = tail call double @sqrt(double noundef %42) #19, !tbaa !4
  %44 = fadd double %41, %43
  %45 = tail call double @pow(double noundef %44, double noundef 0x3FD5555555555555) #19, !tbaa !4
  %46 = fneg double %45
  %47 = fcmp olt double %12, 0.000000e+00
  %.058 = select i1 %47, double %45, double %46
  %48 = fcmp oeq double %45, 0.000000e+00
  %49 = fdiv double %7, %.058
  %50 = select i1 %48, double 0.000000e+00, double %49
  %51 = fdiv double %1, 3.000000e+00
  %52 = fadd double %.058, %50
  %53 = fsub double %52, %51
  %54 = load ptr, ptr %0, align 8, !tbaa !8
  store double %53, ptr %54, align 8, !tbaa !12
  %55 = fneg double %51
  %56 = tail call double @llvm.fmuladd.f64(double %52, double -5.000000e-01, double %55)
  %57 = getelementptr inbounds nuw i8, ptr %54, i64 8
  store double %56, ptr %57, align 8, !tbaa !12
  %58 = fsub double %.058, %50
  %59 = fmul double %58, 0x3FEBB67AE8584CAA
  %60 = getelementptr inbounds nuw i8, ptr %54, i64 16
  store double %59, ptr %60, align 8, !tbaa !12
  %61 = tail call double @llvm.fabs.f64(double %59)
  %62 = fcmp olt double %61, 0x3D06849B86A12B9B
  br i1 %62, label %63, label %64

63:                                               ; preds = %40
  store double %56, ptr %60, align 8, !tbaa !12
  br label %64

64:                                               ; preds = %40, %63, %17
  %.057 = phi i32 [ 3, %17 ], [ 2, %63 ], [ 1, %40 ]
  ret i32 %.057
}